; Function Attrs: nounwind uwtable
define internal fastcc noalias nonnull ptr @_init_l_Lean_Core_wrapAsyncAsSnapshot___rarg___lambda__4___closed__8() unnamed_addr #1 {
  %1 = load ptr, ptr @l_Lean_initFn____x40_Lean_CoreM___hyg_80____closed__3, align 8, !tbaa !9
  %2 = load ptr, ptr @l_Lean_Core_wrapAsyncAsSnapshot___rarg___lambda__4___closed__5, align 8, !tbaa !9
  %3 = load ptr, ptr @l_Lean_Core_wrapAsyncAsSnapshot___rarg___lambda__4___closed__7, align 8, !tbaa !9
  tail call void @lean_inc_heartbeat() #7
  %4 = tail call noalias ptr @mi_malloc_small(i64 noundef 48) #7
  %5 = icmp eq ptr %4, null
  br i1 %5, label %6, label %lean_alloc_ctor.exit

6:                                                ; preds = %0
  tail call void @lean_internal_panic_out_of_memory() #8
  unreachable

lean_alloc_ctor.exit:                             ; preds = %0
  %7 = getelementptr inbounds nuw i8, ptr %4, i64 4
  %8 = getelementptr inbounds nuw i8, ptr %4, i64 40
  store i64 0, ptr %8, align 8, !tbaa !12
  store i32 1, ptr %4, align 4, !tbaa !4
  store i32 262192, ptr %7, align 4
  %9 = getelementptr inbounds nuw i8, ptr %4, i64 8
  store ptr %1, ptr %9, align 8, !tbaa !9
  %10 = getelementptr inbounds nuw i8, ptr %4, i64 16
  store ptr %2, ptr %10, align 8, !tbaa !9
  %11 = getelementptr inbounds nuw i8, ptr %4, i64 24
  store ptr inttoptr (i64 1 to ptr), ptr %11, align 8, !tbaa !9
  %12 = getelementptr inbounds nuw i8, ptr %4, i64 32
  store ptr %3, ptr %12, align 8, !tbaa !9
  ret ptr %4
}